; Function Attrs: nounwind uwtable
define range(i32 -1, 1) i32 @H5F_object_flush_cb(ptr nocapture noundef readonly %0, i64 noundef %1) local_unnamed_addr #0 {
  %3 = getelementptr inbounds i8, ptr %0, i64 16
  %4 = load ptr, ptr %3, align 8
  %5 = getelementptr inbounds i8, ptr %4, i64 2304
  %6 = load ptr, ptr %5, align 8
  %.not = icmp eq ptr %6, null
  br i1 %.not, label %16, label %7

7:                                                ; preds = %2
  %8 = getelementptr inbounds i8, ptr %4, i64 2312
  %9 = load ptr, ptr %8, align 8
  %10 = tail call i32 %6(i64 noundef %1, ptr noundef %9) #22
  %11 = icmp slt i32 %10, 0
  br i1 %11, label %12, label %16

12:                                               ; preds = %7
  %13 = load i64, ptr @H5E_DATASET_g, align 8
  %14 = load i64, ptr @H5E_CANTINIT_g, align 8
  %15 = tail call i32 (ptr, ptr, i32, i64, i64, ptr, ...) @H5E_printf_stack(ptr noundef nonnull @.str.2, ptr noundef nonnull @__func__.H5F_object_flush_cb, i32 noundef 3467, i64 noundef %13, i64 noundef %14, ptr noundef nonnull @.str.146) #22
  br label %16

16:                                               ; preds = %2, %7, %12
  %.0 = phi i32 [ -1, %12 ], [ 0, %7 ], [ 0, %2 ]
  ret i32 %.0
}